; Function Attrs: nofree norecurse nosync nounwind memory(readwrite, inaccessiblemem: none) uwtable
define void @N_VScale_Serial(double noundef %0, ptr noundef readonly captures(address) %1, ptr noundef readonly captures(address) %2) #8 {
  %4 = icmp eq ptr %2, %1
  br i1 %4, label %5, label %12

5:                                                ; preds = %3
  %.val = load ptr, ptr %1, align 8, !tbaa !39
  %.val.val = load i64, ptr %.val, align 8, !tbaa !32
  %6 = getelementptr i8, ptr %.val, i64 16
  %.val.val23 = load ptr, ptr %6, align 8, !tbaa !38
  %7 = icmp sgt i64 %.val.val, 0
  br i1 %7, label %.lr.ph.i, label %VScaleBy_Serial.exit

.lr.ph.i:                                         ; preds = %5, %.lr.ph.i
  %.01.i = phi i64 [ %11, %.lr.ph.i ], [ 0, %5 ]
  %8 = getelementptr inbounds nuw double, ptr %.val.val23, i64 %.01.i
  %9 = load double, ptr %8, align 8, !tbaa !44
  %10 = fmul double %0, %9
  store double %10, ptr %8, align 8, !tbaa !44
  %11 = add nuw nsw i64 %.01.i, 1
  %exitcond.not.i = icmp eq i64 %11, %.val.val
  br i1 %exitcond.not.i, label %VScaleBy_Serial.exit, label %.lr.ph.i, !llvm.loop !60

12:                                               ; preds = %3
  %13 = fcmp oeq double %0, 1.000000e+00
  br i1 %13, label %14, label %22

14:                                               ; preds = %12
  %.val24 = load ptr, ptr %1, align 8, !tbaa !39
  %.val25 = load ptr, ptr %2, align 8, !tbaa !39
  %.val24.val = load i64, ptr %.val24, align 8, !tbaa !32
  %15 = getelementptr i8, ptr %.val24, i64 16
  %.val24.val26 = load ptr, ptr %15, align 8, !tbaa !38
  %16 = getelementptr i8, ptr %.val25, i64 16
  %.val25.val = load ptr, ptr %16, align 8, !tbaa !38
  %17 = icmp sgt i64 %.val24.val, 0
  br i1 %17, label %.lr.ph.i30, label %VScaleBy_Serial.exit

.lr.ph.i30:                                       ; preds = %14, %.lr.ph.i30
  %.01.i31 = phi i64 [ %21, %.lr.ph.i30 ], [ 0, %14 ]
  %18 = getelementptr inbounds nuw double, ptr %.val24.val26, i64 %.01.i31
  %19 = load double, ptr %18, align 8, !tbaa !44
  %20 = getelementptr inbounds nuw double, ptr %.val25.val, i64 %.01.i31
  store double %19, ptr %20, align 8, !tbaa !44
  %21 = add nuw nsw i64 %.01.i31, 1
  %exitcond.not.i32 = icmp eq i64 %21, %.val24.val
  br i1 %exitcond.not.i32, label %VScaleBy_Serial.exit, label %.lr.ph.i30, !llvm.loop !61

22:                                               ; preds = %12
  %23 = fcmp oeq double %0, -1.000000e+00
  %.val27 = load ptr, ptr %1, align 8, !tbaa !39
  br i1 %23, label %24, label %33

24:                                               ; preds = %22
  %.val28 = load ptr, ptr %2, align 8, !tbaa !39
  %.val27.val = load i64, ptr %.val27, align 8, !tbaa !32
  %25 = getelementptr i8, ptr %.val27, i64 16
  %.val27.val29 = load ptr, ptr %25, align 8, !tbaa !38
  %26 = getelementptr i8, ptr %.val28, i64 16
  %.val28.val = load ptr, ptr %26, align 8, !tbaa !38
  %27 = icmp sgt i64 %.val27.val, 0
  br i1 %27, label %.lr.ph.i33, label %VScaleBy_Serial.exit

.lr.ph.i33:                                       ; preds = %24, %.lr.ph.i33
  %.01.i34 = phi i64 [ %32, %.lr.ph.i33 ], [ 0, %24 ]
  %28 = getelementptr inbounds nuw double, ptr %.val27.val29, i64 %.01.i34
  %29 = load double, ptr %28, align 8, !tbaa !44
  %30 = fneg double %29
  %31 = getelementptr inbounds nuw double, ptr %.val28.val, i64 %.01.i34
  store double %30, ptr %31, align 8, !tbaa !44
  %32 = add nuw nsw i64 %.01.i34, 1
  %exitcond.not.i35 = icmp eq i64 %32, %.val27.val
  br i1 %exitcond.not.i35, label %VScaleBy_Serial.exit, label %.lr.ph.i33, !llvm.loop !62

33:                                               ; preds = %22
  %34 = load i64, ptr %.val27, align 8, !tbaa !32
  %35 = getelementptr inbounds nuw i8, ptr %.val27, i64 16
  %36 = load ptr, ptr %35, align 8, !tbaa !38
  %37 = load ptr, ptr %2, align 8, !tbaa !39
  %38 = getelementptr inbounds nuw i8, ptr %37, i64 16
  %39 = load ptr, ptr %38, align 8, !tbaa !38
  %40 = icmp sgt i64 %34, 0
  br i1 %40, label %.lr.ph, label %VScaleBy_Serial.exit

.lr.ph:                                           ; preds = %33, %.lr.ph
  %.039 = phi i64 [ %45, %.lr.ph ], [ 0, %33 ]
  %41 = getelementptr inbounds nuw double, ptr %36, i64 %.039
  %42 = load double, ptr %41, align 8, !tbaa !44
  %43 = fmul double %0, %42
  %44 = getelementptr inbounds nuw double, ptr %39, i64 %.039
  store double %43, ptr %44, align 8, !tbaa !44
  %45 = add nuw nsw i64 %.039, 1
  %exitcond.not = icmp eq i64 %45, %34
  br i1 %exitcond.not, label %VScaleBy_Serial.exit, label %.lr.ph, !llvm.loop !63

VScaleBy_Serial.exit:                             ; preds = %.lr.ph, %.lr.ph.i33, %.lr.ph.i30, %.lr.ph.i, %33, %24, %14, %5
  ret void
}